target datalayout = "e-m:e-p270:32:32-p271:32:32-p272:64:64-i64:64-i128:128-f80:128-n8:16:32:64-S128"
target triple = "x86_64-pc-linux-gnu"

%"struct.open_spiel::chess::Move" = type { %"struct.open_spiel::chess_common::Square", %"struct.open_spiel::chess_common::Square", %"struct.open_spiel::chess::Piece", i8, i32 }
%"struct.open_spiel::chess_common::Square" = type { i8, i8 }
%"struct.open_spiel::chess::Piece" = type { i8, i8 }
%"struct.std::pair.6" = type { i32, i32 }
%class.anon = type { ptr, ptr, ptr }
%"class.open_spiel::chess::ChessBoard" = type { i32, i8, i8, %"struct.std::array", i8, %"struct.open_spiel::chess_common::Square", i32, i32, [2 x %struct.anon], i64 }
%"struct.std::array" = type { [64 x %"struct.open_spiel::chess::Piece"] }
%struct.anon = type { %"class.absl::debian2::optional", %"class.absl::debian2::optional" }
%"class.absl::debian2::optional" = type { %"class.absl::debian2::optional_internal::optional_data" }
%"class.absl::debian2::optional_internal::optional_data" = type { %"class.absl::debian2::optional_internal::optional_data_base" }
%"class.absl::debian2::optional_internal::optional_data_base" = type { %"class.absl::debian2::optional_internal::optional_data_dtor_base" }
%"class.absl::debian2::optional_internal::optional_data_dtor_base" = type { i8, %union.anon.8 }
%union.anon.8 = type { %"struct.open_spiel::chess_common::Square" }

; Function Attrs: mustprogress nounwind uwtable
define linkonce_odr noundef zeroext i1 @_ZNK10open_spiel12chess_common6SquareeqERKS1_(ptr noundef nonnull align 1 dereferenceable(2) %0, ptr noundef nonnull align 1 dereferenceable(2) %1) #5 comdat align 2 {
  %3 = alloca ptr, align 8
  %4 = alloca ptr, align 8
  store ptr %0, ptr %3, align 8
  store ptr %1, ptr %4, align 8
  %5 = load ptr, ptr %3, align 8
  %6 = getelementptr inbounds nuw %"struct.open_spiel::chess_common::Square", ptr %5, i32 0, i32 0
  %7 = load i8, ptr %6, align 1
  %8 = sext i8 %7 to i32
  %9 = load ptr, ptr %4, align 8
  %10 = getelementptr inbounds nuw %"struct.open_spiel::chess_common::Square", ptr %9, i32 0, i32 0
  %11 = load i8, ptr %10, align 1
  %12 = sext i8 %11 to i32
  %13 = icmp eq i32 %8, %12
  br i1 %13, label %14, label %23

14:                                               ; preds = %2
  %15 = getelementptr inbounds nuw %"struct.open_spiel::chess_common::Square", ptr %5, i32 0, i32 1
  %16 = load i8, ptr %15, align 1
  %17 = sext i8 %16 to i32
  %18 = load ptr, ptr %4, align 8
  %19 = getelementptr inbounds nuw %"struct.open_spiel::chess_common::Square", ptr %18, i32 0, i32 1
  %20 = load i8, ptr %19, align 1
  %21 = sext i8 %20 to i32
  %22 = icmp eq i32 %17, %21
  br label %23

23:                                               ; preds = %14, %2
  %24 = phi i1 [ false, %2 ], [ %22, %14 ]
  ret i1 %24
}

; Function Attrs: mustprogress nounwind uwtable
define linkonce_odr noundef i32 @_ZNK10open_spiel5chess10ChessBoard9BoardSizeEv(ptr noundef nonnull align 8 dereferenceable(168) %0) #5 comdat align 2 {
  %2 = alloca ptr, align 8
  store ptr %0, ptr %2, align 8
  %3 = load ptr, ptr %2, align 8
  %4 = getelementptr inbounds nuw %"class.open_spiel::chess::ChessBoard", ptr %3, i32 0, i32 0
  %5 = load i32, ptr %4, align 8
  ret i32 %5
}

; Function Attrs: mustprogress nounwind uwtable
define linkonce_odr noundef zeroext i1 @_ZNK10open_spiel12chess_common6SquareneERKS1_(ptr noundef nonnull align 1 dereferenceable(2) %0, ptr noundef nonnull align 1 dereferenceable(2) %1) #5 comdat align 2 {
  %3 = alloca ptr, align 8
  %4 = alloca ptr, align 8
  store ptr %0, ptr %3, align 8
  store ptr %1, ptr %4, align 8
  %5 = load ptr, ptr %3, align 8
  %6 = load ptr, ptr %4, align 8
  %7 = call noundef zeroext i1 @_ZNK10open_spiel12chess_common6SquareeqERKS1_(ptr noundef nonnull align 1 dereferenceable(2) %5, ptr noundef nonnull align 1 dereferenceable(2) %6)
  %8 = xor i1 %7, true
  ret i1 %8
}

; Function Attrs: mustprogress uwtable
define internal noundef zeroext i1 @"_ZZN10open_spiel10kriegspiel12GetCheckTypeERKNS_5chess10ChessBoardEENK3$_0clERKNS1_4MoveE"(ptr noundef nonnull align 8 dereferenceable(24) %0, ptr noundef nonnull align 4 dereferenceable(12) %1) #4 align 2 {
  %3 = alloca i1, align 1
  %4 = alloca ptr, align 8
  %5 = alloca ptr, align 8
  %6 = alloca i32, align 4
  store ptr %0, ptr %4, align 8
  store ptr %1, ptr %5, align 8
  %7 = load ptr, ptr %4, align 8
  %8 = load ptr, ptr %5, align 8
  %9 = getelementptr inbounds nuw %"struct.open_spiel::chess::Move", ptr %8, i32 0, i32 1
  %10 = getelementptr inbounds nuw %class.anon, ptr %7, i32 0, i32 0
  %11 = load ptr, ptr %10, align 8
  %12 = call noundef zeroext i1 @_ZNK10open_spiel12chess_common6SquareneERKS1_(ptr noundef nonnull align 1 dereferenceable(2) %9, ptr noundef nonnull align 1 dereferenceable(2) %11)
  br i1 %12, label %13, label %14

13:                                               ; preds = %2
  store i1 true, ptr %3, align 1
  br label %78

14:                                               ; preds = %2
  %15 = load ptr, ptr %5, align 8
  %16 = getelementptr inbounds nuw %"struct.open_spiel::chess::Move", ptr %15, i32 0, i32 2
  %17 = getelementptr inbounds nuw %"struct.open_spiel::chess::Piece", ptr %16, i32 0, i32 1
  %18 = load i8, ptr %17, align 1
  %19 = icmp eq i8 %18, 5
  br i1 %19, label %20, label %21

20:                                               ; preds = %14
  store i32 5, ptr %6, align 4
  br label %61

21:                                               ; preds = %14
  %22 = load ptr, ptr %5, align 8
  %23 = getelementptr inbounds nuw %"struct.open_spiel::chess::Move", ptr %22, i32 0, i32 0
  %24 = getelementptr inbounds nuw %"struct.open_spiel::chess_common::Square", ptr %23, i32 0, i32 0
  %25 = load i8, ptr %24, align 4
  %26 = sext i8 %25 to i32
  %27 = load ptr, ptr %5, align 8
  %28 = getelementptr inbounds nuw %"struct.open_spiel::chess::Move", ptr %27, i32 0, i32 1
  %29 = getelementptr inbounds nuw %"struct.open_spiel::chess_common::Square", ptr %28, i32 0, i32 0
  %30 = load i8, ptr %29, align 2
  %31 = sext i8 %30 to i32
  %32 = icmp eq i32 %26, %31
  br i1 %32, label %33, label %34

33:                                               ; preds = %21
  store i32 1, ptr %6, align 4
  br label %60

34:                                               ; preds = %21
  %35 = load ptr, ptr %5, align 8
  %36 = getelementptr inbounds nuw %"struct.open_spiel::chess::Move", ptr %35, i32 0, i32 0
  %37 = getelementptr inbounds nuw %"struct.open_spiel::chess_common::Square", ptr %36, i32 0, i32 1
  %38 = load i8, ptr %37, align 1
  %39 = sext i8 %38 to i32
  %40 = load ptr, ptr %5, align 8
  %41 = getelementptr inbounds nuw %"struct.open_spiel::chess::Move", ptr %40, i32 0, i32 1
  %42 = getelementptr inbounds nuw %"struct.open_spiel::chess_common::Square", ptr %41, i32 0, i32 1
  %43 = load i8, ptr %42, align 1
  %44 = sext i8 %43 to i32
  %45 = icmp eq i32 %39, %44
  br i1 %45, label %46, label %47

46:                                               ; preds = %34
  store i32 2, ptr %6, align 4
  br label %59

47:                                               ; preds = %34
  %48 = load ptr, ptr %5, align 8
  %49 = getelementptr inbounds nuw %"struct.open_spiel::chess::Move", ptr %48, i32 0, i32 0
  %50 = load ptr, ptr %5, align 8
  %51 = getelementptr inbounds nuw %"struct.open_spiel::chess::Move", ptr %50, i32 0, i32 1
  %52 = getelementptr inbounds nuw %class.anon, ptr %7, i32 0, i32 2
  %53 = load ptr, ptr %52, align 8
  %54 = call noundef i32 @_ZNK10open_spiel5chess10ChessBoard9BoardSizeEv(ptr noundef nonnull align 8 dereferenceable(168) %53)
  %55 = call noundef zeroext i1 @_ZN10open_spiel5chess14IsLongDiagonalERKNS_12chess_common6SquareES4_i(ptr noundef nonnull align 1 dereferenceable(2) %49, ptr noundef nonnull align 1 dereferenceable(2) %51, i32 noundef %54)
  br i1 %55, label %56, label %57

56:                                               ; preds = %47
  store i32 3, ptr %6, align 4
  br label %58

57:                                               ; preds = %47
  store i32 4, ptr %6, align 4
  br label %58

58:                                               ; preds = %57, %56
  br label %59

59:                                               ; preds = %58, %46
  br label %60

60:                                               ; preds = %59, %33
  br label %61

61:                                               ; preds = %60, %20
  %62 = getelementptr inbounds nuw %class.anon, ptr %7, i32 0, i32 1
  %63 = load ptr, ptr %62, align 8
  %64 = getelementptr inbounds nuw %"struct.std::pair.6", ptr %63, i32 0, i32 0
  %65 = load i32, ptr %64, align 4
  %66 = icmp ne i32 %65, 0
  br i1 %66, label %67, label %72

67:                                               ; preds = %61
  %68 = load i32, ptr %6, align 4
  %69 = getelementptr inbounds nuw %class.anon, ptr %7, i32 0, i32 1
  %70 = load ptr, ptr %69, align 8
  %71 = getelementptr inbounds nuw %"struct.std::pair.6", ptr %70, i32 0, i32 1
  store i32 %68, ptr %71, align 4
  store i1 false, ptr %3, align 1
  br label %78

72:                                               ; preds = %61
  %73 = load i32, ptr %6, align 4
  %74 = getelementptr inbounds nuw %class.anon, ptr %7, i32 0, i32 1
  %75 = load ptr, ptr %74, align 8
  %76 = getelementptr inbounds nuw %"struct.std::pair.6", ptr %75, i32 0, i32 0
  store i32 %73, ptr %76, align 4
  br label %77

77:                                               ; preds = %72
  store i1 true, ptr %3, align 1
  br label %78

78:                                               ; preds = %77, %67, %13
  %79 = load i1, ptr %3, align 1
  ret i1 %79
}

; Function Attrs: mustprogress nounwind uwtable
define linkonce_odr noundef ptr @_ZNKSt9_Any_data9_M_accessEv(ptr noundef nonnull align 8 dereferenceable(16) %0) #5 comdat align 2 {
  %2 = alloca ptr, align 8
  store ptr %0, ptr %2, align 8
  %3 = load ptr, ptr %2, align 8
  %4 = getelementptr inbounds [16 x i8], ptr %3, i64 0, i64 0
  ret ptr %4
}

; Function Attrs: mustprogress uwtable
define internal noundef zeroext i1 @"_ZSt13__invoke_implIbRZN10open_spiel10kriegspiel12GetCheckTypeERKNS0_5chess10ChessBoardEE3$_0JRKNS2_4MoveEEET_St14__invoke_otherOT0_DpOT1_"(ptr noundef nonnull align 8 dereferenceable(24) %0, ptr noundef nonnull align 4 dereferenceable(12) %1) #4 {
  %3 = alloca ptr, align 8
  %4 = alloca ptr, align 8
  store ptr %0, ptr %3, align 8
  store ptr %1, ptr %4, align 8
  %5 = load ptr, ptr %3, align 8
  %6 = load ptr, ptr %4, align 8
  %7 = call noundef zeroext i1 @"_ZZN10open_spiel10kriegspiel12GetCheckTypeERKNS_5chess10ChessBoardEENK3$_0clERKNS1_4MoveE"(ptr noundef nonnull align 8 dereferenceable(24) %5, ptr noundef nonnull align 4 dereferenceable(12) %6)
  ret i1 %7
}

; Function Attrs: mustprogress nounwind uwtable
define internal noundef nonnull align 8 dereferenceable(8) ptr @"_ZNKSt9_Any_data9_M_accessIPZN10open_spiel10kriegspiel12GetCheckTypeERKNS1_5chess10ChessBoardEE3$_0EERKT_v"(ptr noundef nonnull align 8 dereferenceable(16) %0) #5 align 2 {
  %2 = alloca ptr, align 8
  store ptr %0, ptr %2, align 8
  %3 = load ptr, ptr %2, align 8
  %4 = call noundef ptr @_ZNKSt9_Any_data9_M_accessEv(ptr noundef nonnull align 8 dereferenceable(16) %3) #3
  ret ptr %4
}

; Function Attrs: mustprogress uwtable
define internal noundef zeroext i1 @"_ZSt10__invoke_rIbRZN10open_spiel10kriegspiel12GetCheckTypeERKNS0_5chess10ChessBoardEE3$_0JRKNS2_4MoveEEENSt9enable_ifIX16is_invocable_r_vIT_T0_DpT1_EESC_E4typeEOSD_DpOSE_"(ptr noundef nonnull align 8 dereferenceable(24) %0, ptr noundef nonnull align 4 dereferenceable(12) %1) #4 {
  %3 = alloca ptr, align 8
  %4 = alloca ptr, align 8
  store ptr %0, ptr %3, align 8
  store ptr %1, ptr %4, align 8
  %5 = load ptr, ptr %3, align 8
  %6 = load ptr, ptr %4, align 8
  %7 = call noundef zeroext i1 @"_ZSt13__invoke_implIbRZN10open_spiel10kriegspiel12GetCheckTypeERKNS0_5chess10ChessBoardEE3$_0JRKNS2_4MoveEEET_St14__invoke_otherOT0_DpOT1_"(ptr noundef nonnull align 8 dereferenceable(24) %5, ptr noundef nonnull align 4 dereferenceable(12) %6)
  ret i1 %7
}

; Function Attrs: mustprogress nounwind uwtable
define internal noundef ptr @"_ZNSt14_Function_base13_Base_managerIZN10open_spiel10kriegspiel12GetCheckTypeERKNS1_5chess10ChessBoardEE3$_0E14_M_get_pointerERKSt9_Any_data"(ptr noundef nonnull align 8 dereferenceable(16) %0) #5 align 2 {
  %2 = alloca ptr, align 8
  store ptr %0, ptr %2, align 8
  %3 = load ptr, ptr %2, align 8
  %4 = call noundef nonnull align 8 dereferenceable(8) ptr @"_ZNKSt9_Any_data9_M_accessIPZN10open_spiel10kriegspiel12GetCheckTypeERKNS1_5chess10ChessBoardEE3$_0EERKT_v"(ptr noundef nonnull align 8 dereferenceable(16) %3) #3
  %5 = load ptr, ptr %4, align 8
  ret ptr %5
}

; Function Attrs: mustprogress uwtable
define internal noundef zeroext i1 @"_ZNSt17_Function_handlerIFbRKN10open_spiel5chess4MoveEEZNS0_10kriegspiel12GetCheckTypeERKNS1_10ChessBoardEE3$_0E9_M_invokeERKSt9_Any_dataS4_"(ptr noundef nonnull align 8 dereferenceable(16) %0, ptr noundef nonnull align 4 dereferenceable(12) %1) #4 align 2 {
  %3 = alloca ptr, align 8
  %4 = alloca ptr, align 8
  store ptr %0, ptr %3, align 8
  store ptr %1, ptr %4, align 8
  %5 = load ptr, ptr %3, align 8
  %6 = call noundef ptr @"_ZNSt14_Function_base13_Base_managerIZN10open_spiel10kriegspiel12GetCheckTypeERKNS1_5chess10ChessBoardEE3$_0E14_M_get_pointerERKSt9_Any_data"(ptr noundef nonnull align 8 dereferenceable(16) %5) #3
  %7 = load ptr, ptr %4, align 8
  %8 = call noundef zeroext i1 @"_ZSt10__invoke_rIbRZN10open_spiel10kriegspiel12GetCheckTypeERKNS0_5chess10ChessBoardEE3$_0JRKNS2_4MoveEEENSt9enable_ifIX16is_invocable_r_vIT_T0_DpT1_EESC_E4typeEOSD_DpOSE_"(ptr noundef nonnull align 8 dereferenceable(24) %6, ptr noundef nonnull align 4 dereferenceable(12) %7)
  ret i1 %8
}