; Function Attrs: mustprogress uwtable
define internal noundef zeroext i1 @"_ZNSt17_Function_handlerIFbRKN10open_spiel5chess4MoveEEZNS0_10kriegspiel12GetCheckTypeERKNS1_10ChessBoardEE3$_0E9_M_invokeERKSt9_Any_dataS4_"(ptr noundef nonnull readonly align 8 captures(none) dereferenceable(16) %0, ptr noundef nonnull align 4 dereferenceable(12) %1) #4 align 2 {
  %.val = load ptr, ptr %0, align 8
  %3 = getelementptr inbounds nuw i8, ptr %1, i64 2
  %4 = load ptr, ptr %.val, align 8
  %5 = load i8, ptr %3, align 2
  %6 = load i8, ptr %4, align 1
  %7 = icmp ne i8 %5, %6
  %8 = getelementptr inbounds nuw i8, ptr %1, i64 3
  %9 = load i8, ptr %8, align 1
  %10 = getelementptr inbounds nuw i8, ptr %4, i64 1
  %11 = load i8, ptr %10, align 1
  %12 = icmp ne i8 %9, %11
  %.not3.i.i.i.i = select i1 %7, i1 true, i1 %12
  br i1 %.not3.i.i.i.i, label %"_ZSt10__invoke_rIbRZN10open_spiel10kriegspiel12GetCheckTypeERKNS0_5chess10ChessBoardEE3$_0JRKNS2_4MoveEEENSt9enable_ifIX16is_invocable_r_vIT_T0_DpT1_EESC_E4typeEOSD_DpOSE_.exit", label %13

13:                                               ; preds = %2
  %14 = getelementptr inbounds nuw i8, ptr %1, i64 5
  %15 = load i8, ptr %14, align 1
  %16 = icmp eq i8 %15, 5
  br i1 %16, label %29, label %17

17:                                               ; preds = %13
  %18 = load i8, ptr %1, align 4
  %19 = icmp eq i8 %18, %5
  br i1 %19, label %29, label %20

20:                                               ; preds = %17
  %21 = getelementptr inbounds nuw i8, ptr %1, i64 1
  %22 = load i8, ptr %21, align 1
  %23 = icmp eq i8 %22, %9
  br i1 %23, label %29, label %24

24:                                               ; preds = %20
  %25 = getelementptr inbounds nuw i8, ptr %.val, i64 16
  %26 = load ptr, ptr %25, align 8
  %27 = load i32, ptr %26, align 8
  %28 = tail call noundef zeroext i1 @_ZN10open_spiel5chess14IsLongDiagonalERKNS_12chess_common6SquareES4_i(ptr noundef nonnull align 4 dereferenceable(12) %1, ptr noundef nonnull align 1 dereferenceable(2) %3, i32 noundef %27)
  %..i.i.i = select i1 %28, i32 3, i32 4
  br label %29

29:                                               ; preds = %24, %20, %17, %13
  %.0.i.i.i = phi i32 [ 5, %13 ], [ 1, %17 ], [ 2, %20 ], [ %..i.i.i, %24 ]
  %30 = getelementptr inbounds nuw i8, ptr %.val, i64 8
  %31 = load ptr, ptr %30, align 8
  %32 = load i32, ptr %31, align 4
  %.not.i.i.i = icmp eq i32 %32, 0
  br i1 %.not.i.i.i, label %35, label %33

33:                                               ; preds = %29
  %34 = getelementptr inbounds nuw i8, ptr %31, i64 4
  store i32 %.0.i.i.i, ptr %34, align 4
  br label %"_ZSt10__invoke_rIbRZN10open_spiel10kriegspiel12GetCheckTypeERKNS0_5chess10ChessBoardEE3$_0JRKNS2_4MoveEEENSt9enable_ifIX16is_invocable_r_vIT_T0_DpT1_EESC_E4typeEOSD_DpOSE_.exit"

35:                                               ; preds = %29
  store i32 %.0.i.i.i, ptr %31, align 4
  br label %"_ZSt10__invoke_rIbRZN10open_spiel10kriegspiel12GetCheckTypeERKNS0_5chess10ChessBoardEE3$_0JRKNS2_4MoveEEENSt9enable_ifIX16is_invocable_r_vIT_T0_DpT1_EESC_E4typeEOSD_DpOSE_.exit"

"_ZSt10__invoke_rIbRZN10open_spiel10kriegspiel12GetCheckTypeERKNS0_5chess10ChessBoardEE3$_0JRKNS2_4MoveEEENSt9enable_ifIX16is_invocable_r_vIT_T0_DpT1_EESC_E4typeEOSD_DpOSE_.exit": ; preds = %2, %33, %35
  %.011.i.i.i = phi i1 [ false, %33 ], [ true, %35 ], [ true, %2 ]
  ret i1 %.011.i.i.i
}